; Function Attrs: mustprogress nofree norecurse nosync nounwind willreturn memory(read, inaccessiblemem: none) uwtable
define dso_local noundef ptr @_ZNK9CGContext17get_current_blockEv(ptr noundef nonnull readonly align 8 captures(none) dereferenceable(216) %0) local_unnamed_addr #8 align 2 {
  %2 = load ptr, ptr %0, align 8
  %.not = icmp eq ptr %2, null
  br i1 %.not, label %11, label %3

3:                                                ; preds = %1
  %4 = getelementptr inbounds nuw i8, ptr %2, i64 144
  %5 = getelementptr inbounds nuw i8, ptr %2, i64 152
  %6 = load ptr, ptr %5, align 8
  %7 = load ptr, ptr %4, align 8
  %.not6 = icmp eq ptr %6, %7
  br i1 %.not6, label %11, label %8

8:                                                ; preds = %3
  %9 = getelementptr inbounds i8, ptr %6, i64 -8
  %10 = load ptr, ptr %9, align 8
  br label %11

11:                                               ; preds = %1, %3, %8
  %.0 = phi ptr [ %10, %8 ], [ null, %3 ], [ null, %1 ]
  ret ptr %.0
}